target datalayout = "e-m:e-p270:32:32-p271:32:32-p272:64:64-i64:64-i128:128-f80:128-n8:16:32:64-S128"
target triple = "x86_64-pc-linux-gnu"

%struct.conf_includes_map_t = type { ptr, ptr }

; Function Attrs: nounwind uwtable
define internal void @_delete_conf_includes(ptr noundef %0) #0 {
  %2 = alloca ptr, align 8
  %3 = alloca ptr, align 8
  store ptr %0, ptr %2, align 8
  call void @llvm.lifetime.start.p0(i64 8, ptr %3) #9
  %4 = load ptr, ptr %2, align 8
  store ptr %4, ptr %3, align 8
  %5 = load ptr, ptr %3, align 8
  %6 = icmp ne ptr %5, null
  br i1 %6, label %7, label %24

7:                                                ; preds = %1
  %8 = load ptr, ptr %3, align 8
  %9 = getelementptr inbounds nuw %struct.conf_includes_map_t, ptr %8, i32 0, i32 0
  call void @slurm_xfree(ptr noundef %9)
  br label %10

10:                                               ; preds = %7
  %11 = load ptr, ptr %3, align 8
  %12 = getelementptr inbounds nuw %struct.conf_includes_map_t, ptr %11, i32 0, i32 1
  %13 = load ptr, ptr %12, align 8
  %14 = icmp ne ptr %13, null
  br i1 %14, label %15, label %19

15:                                               ; preds = %10
  %16 = load ptr, ptr %3, align 8
  %17 = getelementptr inbounds nuw %struct.conf_includes_map_t, ptr %16, i32 0, i32 1
  %18 = load ptr, ptr %17, align 8
  call void @list_destroy(ptr noundef %18)
  br label %19

19:                                               ; preds = %15, %10
  %20 = load ptr, ptr %3, align 8
  %21 = getelementptr inbounds nuw %struct.conf_includes_map_t, ptr %20, i32 0, i32 1
  store ptr null, ptr %21, align 8
  br label %22

22:                                               ; preds = %19
  br label %23

23:                                               ; preds = %22
  call void @slurm_xfree(ptr noundef %3)
  br label %24

24:                                               ; preds = %23, %1
  call void @llvm.lifetime.end.p0(i64 8, ptr %3) #9
  ret void
}