; Function Attrs: nounwind uwtable
define internal void @_delete_conf_includes(ptr noundef %0) #0 {
  %2 = alloca ptr, align 8
  call void @llvm.lifetime.start.p0(i64 8, ptr nonnull %2) #13
  store ptr %0, ptr %2, align 8
  %.not = icmp eq ptr %0, null
  br i1 %.not, label %8, label %3

3:                                                ; preds = %1
  tail call void @slurm_xfree(ptr noundef nonnull %0) #13
  %4 = getelementptr inbounds nuw i8, ptr %0, i64 8
  %5 = load ptr, ptr %4, align 8
  %.not2 = icmp eq ptr %5, null
  br i1 %.not2, label %7, label %6

6:                                                ; preds = %3
  tail call void @list_destroy(ptr noundef nonnull %5) #13
  br label %7

7:                                                ; preds = %6, %3
  store ptr null, ptr %4, align 8
  call void @slurm_xfree(ptr noundef nonnull %2) #13
  br label %8

8:                                                ; preds = %7, %1
  call void @llvm.lifetime.end.p0(i64 8, ptr nonnull %2) #13
  ret void
}